target datalayout = "e-m:e-p270:32:32-p271:32:32-p272:64:64-i64:64-i128:128-f80:128-n8:16:32:64-S128"
target triple = "x86_64-pc-linux-gnu"

%struct.hmac_data_st = type { ptr, ptr, %struct.PROV_DIGEST, ptr, i64, i64, [13 x i8], i32, [64 x i8], i64 }
%struct.PROV_DIGEST = type { ptr, ptr, ptr }

; Function Attrs: nounwind uwtable
define internal i32 @hmac_final(ptr noundef %0, ptr noundef %1, ptr noundef %2, i64 noundef %3) #0 {
  %5 = alloca i32, align 4
  %6 = alloca ptr, align 8
  %7 = alloca ptr, align 8
  %8 = alloca ptr, align 8
  %9 = alloca i64, align 8
  %10 = alloca i32, align 4
  %11 = alloca ptr, align 8
  %12 = alloca i32, align 4
  store ptr %0, ptr %6, align 8, !tbaa !3
  store ptr %1, ptr %7, align 8, !tbaa !23
  store ptr %2, ptr %8, align 8, !tbaa !33
  store i64 %3, ptr %9, align 8, !tbaa !24
  call void @llvm.lifetime.start.p0(i64 4, ptr %10) #6
  call void @llvm.lifetime.start.p0(i64 8, ptr %11) #6
  %13 = load ptr, ptr %6, align 8, !tbaa !3
  store ptr %13, ptr %11, align 8, !tbaa !7
  %14 = call i32 @ossl_prov_is_running()
  %15 = icmp ne i32 %14, 0
  br i1 %15, label %17, label %16

16:                                               ; preds = %4
  store i32 0, ptr %5, align 4
  store i32 1, ptr %12, align 4
  br label %56

17:                                               ; preds = %4
  %18 = load ptr, ptr %11, align 8, !tbaa !7
  %19 = getelementptr inbounds nuw %struct.hmac_data_st, ptr %18, i32 0, i32 5
  %20 = load i64, ptr %19, align 8, !tbaa !31
  %21 = icmp ugt i64 %20, 0
  br i1 %21, label %22, label %44

22:                                               ; preds = %17
  %23 = load ptr, ptr %11, align 8, !tbaa !7
  %24 = getelementptr inbounds nuw %struct.hmac_data_st, ptr %23, i32 0, i32 9
  %25 = load i64, ptr %24, align 8, !tbaa !35
  %26 = icmp eq i64 %25, 0
  br i1 %26, label %27, label %28

27:                                               ; preds = %22
  store i32 0, ptr %5, align 4
  store i32 1, ptr %12, align 4
  br label %56

28:                                               ; preds = %22
  %29 = load ptr, ptr %8, align 8, !tbaa !33
  %30 = icmp ne ptr %29, null
  br i1 %30, label %31, label %36

31:                                               ; preds = %28
  %32 = load ptr, ptr %11, align 8, !tbaa !7
  %33 = getelementptr inbounds nuw %struct.hmac_data_st, ptr %32, i32 0, i32 9
  %34 = load i64, ptr %33, align 8, !tbaa !35
  %35 = load ptr, ptr %8, align 8, !tbaa !33
  store i64 %34, ptr %35, align 8, !tbaa !24
  br label %36

36:                                               ; preds = %31, %28
  %37 = load ptr, ptr %7, align 8, !tbaa !23
  %38 = load ptr, ptr %11, align 8, !tbaa !7
  %39 = getelementptr inbounds nuw %struct.hmac_data_st, ptr %38, i32 0, i32 8
  %40 = getelementptr inbounds [64 x i8], ptr %39, i64 0, i64 0
  %41 = load ptr, ptr %11, align 8, !tbaa !7
  %42 = getelementptr inbounds nuw %struct.hmac_data_st, ptr %41, i32 0, i32 9
  %43 = load i64, ptr %42, align 8, !tbaa !35
  call void @llvm.memcpy.p0.p0.i64(ptr align 1 %37, ptr align 4 %40, i64 %43, i1 false)
  store i32 1, ptr %5, align 4
  store i32 1, ptr %12, align 4
  br label %56

44:                                               ; preds = %17
  %45 = load ptr, ptr %11, align 8, !tbaa !7
  %46 = getelementptr inbounds nuw %struct.hmac_data_st, ptr %45, i32 0, i32 1
  %47 = load ptr, ptr %46, align 8, !tbaa !9
  %48 = load ptr, ptr %7, align 8, !tbaa !23
  %49 = call i32 @HMAC_Final(ptr noundef %47, ptr noundef %48, ptr noundef %10)
  %50 = icmp ne i32 %49, 0
  br i1 %50, label %52, label %51

51:                                               ; preds = %44
  store i32 0, ptr %5, align 4
  store i32 1, ptr %12, align 4
  br label %56

52:                                               ; preds = %44
  %53 = load i32, ptr %10, align 4, !tbaa !26
  %54 = zext i32 %53 to i64
  %55 = load ptr, ptr %8, align 8, !tbaa !33
  store i64 %54, ptr %55, align 8, !tbaa !24
  store i32 1, ptr %5, align 4
  store i32 1, ptr %12, align 4
  br label %56

56:                                               ; preds = %52, %51, %36, %27, %16
  call void @llvm.lifetime.end.p0(i64 8, ptr %11) #6
  call void @llvm.lifetime.end.p0(i64 4, ptr %10) #6
  %57 = load i32, ptr %5, align 4
  ret i32 %57
}