; Function Attrs: nounwind uwtable
define internal range(i32 0, 2) i32 @hmac_final(ptr noundef readonly captures(none) %0, ptr noundef %1, ptr noundef writeonly captures(address_is_null) %2, i64 %3) #0 {
  %5 = alloca i32, align 4
  call void @llvm.lifetime.start.p0(i64 4, ptr nonnull %5) #7
  %6 = tail call i32 @ossl_prov_is_running() #7
  %.not = icmp eq i32 %6, 0
  br i1 %.not, label %26, label %7

7:                                                ; preds = %4
  %8 = getelementptr inbounds nuw i8, ptr %0, i64 56
  %9 = load i64, ptr %8, align 8, !tbaa !27
  %.not14 = icmp eq i64 %9, 0
  br i1 %.not14, label %19, label %10

10:                                               ; preds = %7
  %11 = getelementptr inbounds nuw i8, ptr %0, i64 152
  %12 = load i64, ptr %11, align 8, !tbaa !29
  %13 = icmp eq i64 %12, 0
  br i1 %13, label %26, label %14

14:                                               ; preds = %10
  %.not16 = icmp eq ptr %2, null
  br i1 %.not16, label %16, label %15

15:                                               ; preds = %14
  store i64 %12, ptr %2, align 8, !tbaa !22
  %.pre = load i64, ptr %11, align 8, !tbaa !29
  br label %16

16:                                               ; preds = %15, %14
  %17 = phi i64 [ %.pre, %15 ], [ %12, %14 ]
  %18 = getelementptr inbounds nuw i8, ptr %0, i64 84
  tail call void @llvm.memcpy.p0.p0.i64(ptr align 1 %1, ptr nonnull align 4 %18, i64 %17, i1 false)
  br label %26

19:                                               ; preds = %7
  %20 = getelementptr inbounds nuw i8, ptr %0, i64 8
  %21 = load ptr, ptr %20, align 8, !tbaa !3
  %22 = call i32 @HMAC_Final(ptr noundef %21, ptr noundef %1, ptr noundef nonnull %5) #7
  %.not15 = icmp eq i32 %22, 0
  br i1 %.not15, label %26, label %23

23:                                               ; preds = %19
  %24 = load i32, ptr %5, align 4, !tbaa !24
  %25 = zext i32 %24 to i64
  store i64 %25, ptr %2, align 8, !tbaa !22
  br label %26

26:                                               ; preds = %19, %10, %4, %23, %16
  %.0 = phi i32 [ 1, %16 ], [ 1, %23 ], [ 0, %4 ], [ 0, %10 ], [ 0, %19 ]
  call void @llvm.lifetime.end.p0(i64 4, ptr nonnull %5) #7
  ret i32 %.0
}